;--------------------------------------------------------
; File Created by SDCC : free open source ANSI-C Compiler
; Version 4.1.0 #12072 (MINGW32)
;--------------------------------------------------------
	.module IonicLimb
	.optsdcc -mgbz80
	
;--------------------------------------------------------
; Public variables in this module
;--------------------------------------------------------
	.globl _initialise
	.globl _showLogo
	.globl _seedRandomStartScreen
	.globl _getRand
	.globl _initSound
	.globl _performantDelay
	.globl _arand
	.globl _initarand
	.globl _set_win_tiles
	.globl _set_win_data
	.globl _display_off
	.globl _wait_vbl_done
	.globl _waitpadup
	.globl _waitpad
	.globl _IonicLimbMap
	.globl _IonicLimbTiles
	.globl _ClearTile
;--------------------------------------------------------
; special function registers
;--------------------------------------------------------
;--------------------------------------------------------
; ram data
;--------------------------------------------------------
	.area _DATA
;--------------------------------------------------------
; absolute external ram data
;--------------------------------------------------------
	.area _DABS (ABS)
;--------------------------------------------------------
; global & static initialisations
;--------------------------------------------------------
	.area _HOME
	.area _GSINIT
	.area _GSFINAL
	.area _GSINIT
;--------------------------------------------------------
; Home
;--------------------------------------------------------
	.area _HOME
	.area _HOME
;--------------------------------------------------------
; code
;--------------------------------------------------------
	.area _CODE_1
;P:\04_Computer_Science\C_CPP\Gameboy\02_Domination\ionic_limb_lib\IonicLimb.c:301: void performantDelay(UINT8 numloops)
;	---------------------------------
; Function performantDelay
; ---------------------------------
_performantDelay::
;P:\04_Computer_Science\C_CPP\Gameboy\02_Domination\ionic_limb_lib\IonicLimb.c:304: for(i=0; i<numloops;i++){
	ld	c, #0x00
00103$:
	ld	a, c
	ldhl	sp,	#2
	sub	a, (hl)
	ret	NC
;P:\04_Computer_Science\C_CPP\Gameboy\02_Domination\ionic_limb_lib\IonicLimb.c:305: wait_vbl_done();
	call	_wait_vbl_done
;P:\04_Computer_Science\C_CPP\Gameboy\02_Domination\ionic_limb_lib\IonicLimb.c:304: for(i=0; i<numloops;i++){
	inc	c
;P:\04_Computer_Science\C_CPP\Gameboy\02_Domination\ionic_limb_lib\IonicLimb.c:307: }
	jr	00103$
_ClearTile:
	.db #0x00	; 0
_IonicLimbTiles:
	.db #0x00	; 0
	.db #0x00	; 0
	.db #0x00	; 0
	.db #0x00	; 0
	.db #0x00	; 0
	.db #0x00	; 0
	.db #0x00	; 0
	.db #0x00	; 0
	.db #0x00	; 0
	.db #0x00	; 0
	.db #0x00	; 0
	.db #0x00	; 0
	.db #0x00	; 0
	.db #0x00	; 0
	.db #0x00	; 0
	.db #0x00	; 0
	.db #0x00	; 0
	.db #0x00	; 0
	.db #0x00	; 0
	.db #0x00	; 0
	.db #0x00	; 0
	.db #0x00	; 0
	.db #0x00	; 0
	.db #0x00	; 0
	.db #0x00	; 0
	.db #0x00	; 0
	.db #0x00	; 0
	.db #0x00	; 0
	.db #0x00	; 0
	.db #0x00	; 0
	.db #0x00	; 0
	.db #0x00	; 0
	.db #0x00	; 0
	.db #0x00	; 0
	.db #0x00	; 0
	.db #0x00	; 0
	.db #0x00	; 0
	.db #0x00	; 0
	.db #0x00	; 0
	.db #0x00	; 0
	.db #0x03	; 3
	.db #0x03	; 3
	.db #0x1c	; 28
	.db #0x1c	; 28
	.db #0x60	; 96
	.db #0x60	; 96
	.db #0x80	; 128
	.db #0x80	; 128
	.db #0x00	; 0
	.db #0x00	; 0
	.db #0x00	; 0
	.db #0x00	; 0
	.db #0x0f	; 15
	.db #0x0f	; 15
	.db #0x70	; 112	'p'
	.db #0x70	; 112	'p'
	.db #0x80	; 128
	.db #0x80	; 128
	.db #0x00	; 0
	.db #0x00	; 0
	.db #0x03	; 3
	.db #0x03	; 3
	.db #0x1f	; 31
	.db #0x1f	; 31
	.db #0x00	; 0
	.db #0x00	; 0
	.db #0x7f	; 127
	.db #0x7f	; 127
	.db #0x80	; 128
	.db #0x80	; 128
	.db #0x00	; 0
	.db #0x00	; 0
	.db #0x00	; 0
	.db #0x00	; 0
	.db #0x00	; 0
	.db #0x00	; 0
	.db #0xff	; 255
	.db #0xff	; 255
	.db #0xff	; 255
	.db #0xff	; 255
	.db #0x00	; 0
	.db #0x00	; 0
	.db #0xfe	; 254
	.db #0xfe	; 254
	.db #0x01	; 1
	.db #0x01	; 1
	.db #0x00	; 0
	.db #0x00	; 0
	.db #0x00	; 0
	.db #0x00	; 0
	.db #0x00	; 0
	.db #0x00	; 0
	.db #0xff	; 255
	.db #0xff	; 255
	.db #0xff	; 255
	.db #0xff	; 255
	.db #0x00	; 0
	.db #0x00	; 0
	.db #0x00	; 0
	.db #0x00	; 0
	.db #0xf0	; 240
	.db #0xf0	; 240
	.db #0x0e	; 14
	.db #0x0e	; 14
	.db #0x01	; 1
	.db #0x01	; 1
	.db #0x00	; 0
	.db #0x00	; 0
	.db #0x80	; 128
	.db #0x80	; 128
	.db #0xf8	; 248
	.db #0xf8	; 248
	.db #0x00	; 0
	.db #0x00	; 0
	.db #0x00	; 0
	.db #0x00	; 0
	.db #0x00	; 0
	.db #0x00	; 0
	.db #0x00	; 0
	.db #0x00	; 0
	.db #0xc0	; 192
	.db #0xc0	; 192
	.db #0x30	; 48	'0'
	.db #0x30	; 48	'0'
	.db #0x0c	; 12
	.db #0x0c	; 12
	.db #0x03	; 3
	.db #0x03	; 3
	.db #0x00	; 0
	.db #0x00	; 0
	.db #0x00	; 0
	.db #0x00	; 0
	.db #0x00	; 0
	.db #0x00	; 0
	.db #0x00	; 0
	.db #0x00	; 0
	.db #0x00	; 0
	.db #0x00	; 0
	.db #0x00	; 0
	.db #0x00	; 0
	.db #0x01	; 1
	.db #0x01	; 1
	.db #0x02	; 2
	.db #0x02	; 2
	.db #0x01	; 1
	.db #0x01	; 1
	.db #0x06	; 6
	.db #0x06	; 6
	.db #0x18	; 24
	.db #0x18	; 24
	.db #0x20	; 32
	.db #0x20	; 32
	.db #0x40	; 64
	.db #0x40	; 64
	.db #0x81	; 129
	.db #0x81	; 129
	.db #0x07	; 7
	.db #0x07	; 7
	.db #0x0f	; 15
	.db #0x0f	; 15
	.db #0x00	; 0
	.db #0x00	; 0
	.db #0x03	; 3
	.db #0x03	; 3
	.db #0x0f	; 15
	.db #0x0f	; 15
	.db #0x3f	; 63
	.db #0x3f	; 63
	.db #0xff	; 255
	.db #0xff	; 255
	.db #0xff	; 255
	.db #0xff	; 255
	.db #0xff	; 255
	.db #0xff	; 255
	.db #0xff	; 255
	.db #0xff	; 255
	.db #0xff	; 255
	.db #0xff	; 255
	.db #0xff	; 255
	.db #0xff	; 255
	.db #0xff	; 255
	.db #0xff	; 255
	.db #0xff	; 255
	.db #0xff	; 255
	.db #0xff	; 255
	.db #0xff	; 255
	.db #0xff	; 255
	.db #0xff	; 255
	.db #0xff	; 255
	.db #0xff	; 255
	.db #0xff	; 255
	.db #0xff	; 255
	.db #0x00	; 0
	.db #0x00	; 0
	.db #0xc0	; 192
	.db #0xc0	; 192
	.db #0xf0	; 240
	.db #0xf0	; 240
	.db #0xfc	; 252
	.db #0xfc	; 252
	.db #0xff	; 255
	.db #0xff	; 255
	.db #0xff	; 255
	.db #0xff	; 255
	.db #0xff	; 255
	.db #0xff	; 255
	.db #0xff	; 255
	.db #0xff	; 255
	.db #0x80	; 128
	.db #0x80	; 128
	.db #0x60	; 96
	.db #0x60	; 96
	.db #0x18	; 24
	.db #0x18	; 24
	.db #0x04	; 4
	.db #0x04	; 4
	.db #0x02	; 2
	.db #0x02	; 2
	.db #0x81	; 129
	.db #0x81	; 129
	.db #0xe0	; 224
	.db #0xe0	; 224
	.db #0xf0	; 240
	.db #0xf0	; 240
	.db #0x00	; 0
	.db #0x00	; 0
	.db #0x00	; 0
	.db #0x00	; 0
	.db #0x00	; 0
	.db #0x00	; 0
	.db #0x00	; 0
	.db #0x00	; 0
	.db #0x00	; 0
	.db #0x00	; 0
	.db #0x00	; 0
	.db #0x00	; 0
	.db #0x80	; 128
	.db #0x80	; 128
	.db #0x40	; 64
	.db #0x40	; 64
	.db #0x00	; 0
	.db #0x00	; 0
	.db #0x00	; 0
	.db #0x00	; 0
	.db #0x00	; 0
	.db #0x00	; 0
	.db #0x00	; 0
	.db #0x00	; 0
	.db #0x00	; 0
	.db #0x00	; 0
	.db #0x03	; 3
	.db #0x03	; 3
	.db #0x04	; 4
	.db #0x04	; 4
	.db #0x08	; 8
	.db #0x08	; 8
	.db #0x04	; 4
	.db #0x04	; 4
	.db #0x08	; 8
	.db #0x08	; 8
	.db #0x10	; 16
	.db #0x10	; 16
	.db #0x20	; 32
	.db #0x20	; 32
	.db #0x41	; 65	'A'
	.db #0x41	; 65	'A'
	.db #0xc3	; 195
	.db #0xc3	; 195
	.db #0x27	; 39
	.db #0x27	; 39
	.db #0x16	; 22
	.db #0x16	; 22
	.db #0x1f	; 31
	.db #0x1f	; 31
	.db #0x3e	; 62
	.db #0x3e	; 62
	.db #0x78	; 120	'x'
	.db #0x78	; 120	'x'
	.db #0xe0	; 224
	.db #0xe0	; 224
	.db #0xc0	; 192
	.db #0xc0	; 192
	.db #0x83	; 131
	.db #0x83	; 131
	.db #0x07	; 7
	.db #0x07	; 7
	.db #0x0f	; 15
	.db #0x0f	; 15
	.db #0x00	; 0
	.db #0x00	; 0
	.db #0x00	; 0
	.db #0x00	; 0
	.db #0x00	; 0
	.db #0x00	; 0
	.db #0x00	; 0
	.db #0x00	; 0
	.db #0xfe	; 254
	.db #0xfe	; 254
	.db #0xff	; 255
	.db #0xff	; 255
	.db #0xff	; 255
	.db #0xff	; 255
	.db #0xff	; 255
	.db #0xff	; 255
	.db #0xff	; 255
	.db #0xff	; 255
	.db #0x7f	; 127
	.db #0x7f	; 127
	.db #0x1f	; 31
	.db #0x1f	; 31
	.db #0x07	; 7
	.db #0x07	; 7
	.db #0x03	; 3
	.db #0x03	; 3
	.db #0x81	; 129
	.db #0x81	; 129
	.db #0xe1	; 225
	.db #0xe1	; 225
	.db #0xf0	; 240
	.db #0xf0	; 240
	.db #0xff	; 255
	.db #0xff	; 255
	.db #0xff	; 255
	.db #0xff	; 255
	.db #0xff	; 255
	.db #0xff	; 255
	.db #0xff	; 255
	.db #0xff	; 255
	.db #0xff	; 255
	.db #0xff	; 255
	.db #0xff	; 255
	.db #0xff	; 255
	.db #0xff	; 255
	.db #0xff	; 255
	.db #0xfe	; 254
	.db #0xfe	; 254
	.db #0xf8	; 248
	.db #0xf8	; 248
	.db #0xfc	; 252
	.db #0xfc	; 252
	.db #0xfe	; 254
	.db #0xfe	; 254
	.db #0xff	; 255
	.db #0xff	; 255
	.db #0xff	; 255
	.db #0xff	; 255
	.db #0xff	; 255
	.db #0xff	; 255
	.db #0x3f	; 63
	.db #0x3f	; 63
	.db #0x1f	; 31
	.db #0x1f	; 31
	.db #0x20	; 32
	.db #0x20	; 32
	.db #0x10	; 16
	.db #0x10	; 16
	.db #0x08	; 8
	.db #0x08	; 8
	.db #0x04	; 4
	.db #0x04	; 4
	.db #0x82	; 130
	.db #0x82	; 130
	.db #0xc2	; 194
	.db #0xc2	; 194
	.db #0xe1	; 225
	.db #0xe1	; 225
	.db #0xee	; 238
	.db #0xee	; 238
	.db #0x00	; 0
	.db #0x00	; 0
	.db #0x00	; 0
	.db #0x00	; 0
	.db #0x00	; 0
	.db #0x00	; 0
	.db #0x00	; 0
	.db #0x00	; 0
	.db #0x00	; 0
	.db #0x00	; 0
	.db #0x00	; 0
	.db #0x00	; 0
	.db #0xf0	; 240
	.db #0xf0	; 240
	.db #0x08	; 8
	.db #0x08	; 8
	.db #0x08	; 8
	.db #0x08	; 8
	.db #0x04	; 4
	.db #0x04	; 4
	.db #0x03	; 3
	.db #0x03	; 3
	.db #0x04	; 4
	.db #0x04	; 4
	.db #0x08	; 8
	.db #0x08	; 8
	.db #0x08	; 8
	.db #0x08	; 8
	.db #0x13	; 19
	.db #0x13	; 19
	.db #0x14	; 20
	.db #0x14	; 20
	.db #0x16	; 22
	.db #0x16	; 22
	.db #0x2c	; 44
	.db #0x2c	; 44
	.db #0xdc	; 220
	.db #0xdc	; 220
	.db #0x38	; 56	'8'
	.db #0x38	; 56	'8'
	.db #0x78	; 120	'x'
	.db #0x78	; 120	'x'
	.db #0x78	; 120	'x'
	.db #0x78	; 120	'x'
	.db #0xf0	; 240
	.db #0xf0	; 240
	.db #0x70	; 112	'p'
	.db #0x70	; 112	'p'
	.db #0x0f	; 15
	.db #0x0f	; 15
	.db #0x1f	; 31
	.db #0x1f	; 31
	.db #0x3f	; 63
	.db #0x3f	; 63
	.db #0x3f	; 63
	.db #0x3f	; 63
	.db #0x78	; 120	'x'
	.db #0x78	; 120	'x'
	.db #0x67	; 103	'g'
	.db #0x67	; 103	'g'
	.db #0x58	; 88	'X'
	.db #0x58	; 88	'X'
	.db #0x60	; 96
	.db #0x60	; 96
	.db #0xff	; 255
	.db #0xff	; 255
	.db #0xff	; 255
	.db #0xff	; 255
	.db #0xff	; 255
	.db #0xff	; 255
	.db #0x00	; 0
	.db #0x00	; 0
	.db #0xff	; 255
	.db #0xff	; 255
	.db #0x00	; 0
	.db #0x00	; 0
	.db #0x00	; 0
	.db #0x00	; 0
	.db #0x00	; 0
	.db #0x00	; 0
	.db #0xf0	; 240
	.db #0xf0	; 240
	.db #0xf8	; 248
	.db #0xf8	; 248
	.db #0xf8	; 248
	.db #0xf8	; 248
	.db #0x3c	; 60
	.db #0x3c	; 60
	.db #0xc4	; 196
	.db #0xc4	; 196
	.db #0x3c	; 60
	.db #0x3c	; 60
	.db #0x02	; 2
	.db #0x02	; 2
	.db #0x02	; 2
	.db #0x02	; 2
	.db #0xff	; 255
	.db #0xff	; 255
	.db #0x7f	; 127
	.db #0x7f	; 127
	.db #0x3f	; 63
	.db #0x3f	; 63
	.db #0x3e	; 62
	.db #0x3e	; 62
	.db #0x3c	; 60
	.db #0x3c	; 60
	.db #0x1c	; 28
	.db #0x1c	; 28
	.db #0x1c	; 28
	.db #0x1c	; 28
	.db #0x1c	; 28
	.db #0x1c	; 28
	.db #0xff	; 255
	.db #0xff	; 255
	.db #0xff	; 255
	.db #0xff	; 255
	.db #0xff	; 255
	.db #0xff	; 255
	.db #0x7e	; 126
	.db #0x7e	; 126
	.db #0x38	; 56	'8'
	.db #0x38	; 56	'8'
	.db #0x30	; 48	'0'
	.db #0x30	; 48	'0'
	.db #0x23	; 35
	.db #0x23	; 35
	.db #0x07	; 7
	.db #0x07	; 7
	.db #0xff	; 255
	.db #0xff	; 255
	.db #0xff	; 255
	.db #0xff	; 255
	.db #0xff	; 255
	.db #0xff	; 255
	.db #0x03	; 3
	.db #0x03	; 3
	.db #0x01	; 1
	.db #0x01	; 1
	.db #0x00	; 0
	.db #0x00	; 0
	.db #0xf0	; 240
	.db #0xf0	; 240
	.db #0xf8	; 248
	.db #0xf8	; 248
	.db #0xff	; 255
	.db #0xff	; 255
	.db #0xff	; 255
	.db #0xff	; 255
	.db #0xff	; 255
	.db #0xff	; 255
	.db #0xff	; 255
	.db #0xff	; 255
	.db #0xff	; 255
	.db #0xff	; 255
	.db #0xff	; 255
	.db #0xff	; 255
	.db #0x7f	; 127
	.db #0x7f	; 127
	.db #0x3f	; 63
	.db #0x3f	; 63
	.db #0x3f	; 63
	.db #0x3f	; 63
	.db #0xff	; 255
	.db #0xff	; 255
	.db #0xff	; 255
	.db #0xff	; 255
	.db #0xff	; 255
	.db #0xff	; 255
	.db #0xff	; 255
	.db #0xff	; 255
	.db #0xff	; 255
	.db #0xff	; 255
	.db #0xfe	; 254
	.db #0xfe	; 254
	.db #0x3e	; 62
	.db #0x3e	; 62
	.db #0xf0	; 240
	.db #0xf0	; 240
	.db #0xe0	; 224
	.db #0xe0	; 224
	.db #0xc1	; 193
	.db #0xc1	; 193
	.db #0x86	; 134
	.db #0x86	; 134
	.db #0x0c	; 12
	.db #0x0c	; 12
	.db #0x1e	; 30
	.db #0x1e	; 30
	.db #0x1f	; 31
	.db #0x1f	; 31
	.db #0x3f	; 63
	.db #0x3f	; 63
	.db #0x08	; 8
	.db #0x08	; 8
	.db #0x18	; 24
	.db #0x18	; 24
	.db #0xe0	; 224
	.db #0xe0	; 224
	.db #0x20	; 32
	.db #0x20	; 32
	.db #0x10	; 16
	.db #0x10	; 16
	.db #0x10	; 16
	.db #0x10	; 16
	.db #0x10	; 16
	.db #0x10	; 16
	.db #0x08	; 8
	.db #0x08	; 8
	.db #0x28	; 40
	.db #0x28	; 40
	.db #0x28	; 40
	.db #0x28	; 40
	.db #0x28	; 40
	.db #0x28	; 40
	.db #0x28	; 40
	.db #0x28	; 40
	.db #0x48	; 72	'H'
	.db #0x48	; 72	'H'
	.db #0x48	; 72	'H'
	.db #0x48	; 72	'H'
	.db #0x48	; 72	'H'
	.db #0x48	; 72	'H'
	.db #0x48	; 72	'H'
	.db #0x48	; 72	'H'
	.db #0x30	; 48	'0'
	.db #0x30	; 48	'0'
	.db #0x30	; 48	'0'
	.db #0x30	; 48	'0'
	.db #0x30	; 48	'0'
	.db #0x30	; 48	'0'
	.db #0x30	; 48	'0'
	.db #0x30	; 48	'0'
	.db #0x30	; 48	'0'
	.db #0x30	; 48	'0'
	.db #0x30	; 48	'0'
	.db #0x30	; 48	'0'
	.db #0x30	; 48	'0'
	.db #0x30	; 48	'0'
	.db #0x30	; 48	'0'
	.db #0x30	; 48	'0'
	.db #0x80	; 128
	.db #0x80	; 128
	.db #0x80	; 128
	.db #0x80	; 128
	.db #0x80	; 128
	.db #0x80	; 128
	.db #0x80	; 128
	.db #0x80	; 128
	.db #0x80	; 128
	.db #0x80	; 128
	.db #0x80	; 128
	.db #0x80	; 128
	.db #0x80	; 128
	.db #0x80	; 128
	.db #0x80	; 128
	.db #0x80	; 128
	.db #0x00	; 0
	.db #0x00	; 0
	.db #0x00	; 0
	.db #0x00	; 0
	.db #0x00	; 0
	.db #0x00	; 0
	.db #0x00	; 0
	.db #0x00	; 0
	.db #0x00	; 0
	.db #0x00	; 0
	.db #0x00	; 0
	.db #0x00	; 0
	.db #0x00	; 0
	.db #0x00	; 0
	.db #0x1c	; 28
	.db #0x1c	; 28
	.db #0x02	; 2
	.db #0x02	; 2
	.db #0x02	; 2
	.db #0x02	; 2
	.db #0x02	; 2
	.db #0x02	; 2
	.db #0x02	; 2
	.db #0x02	; 2
	.db #0x02	; 2
	.db #0x02	; 2
	.db #0x02	; 2
	.db #0x02	; 2
	.db #0x02	; 2
	.db #0x02	; 2
	.db #0x02	; 2
	.db #0x02	; 2
	.db #0x1c	; 28
	.db #0x1c	; 28
	.db #0x1c	; 28
	.db #0x1c	; 28
	.db #0x1c	; 28
	.db #0x1c	; 28
	.db #0x1c	; 28
	.db #0x1c	; 28
	.db #0x1c	; 28
	.db #0x1c	; 28
	.db #0x1c	; 28
	.db #0x1c	; 28
	.db #0x1c	; 28
	.db #0x1c	; 28
	.db #0x1c	; 28
	.db #0x1c	; 28
	.db #0x0f	; 15
	.db #0x0f	; 15
	.db #0x1f	; 31
	.db #0x1f	; 31
	.db #0x1f	; 31
	.db #0x1f	; 31
	.db #0x3f	; 63
	.db #0x3f	; 63
	.db #0x3f	; 63
	.db #0x3f	; 63
	.db #0x3f	; 63
	.db #0x3f	; 63
	.db #0x3f	; 63
	.db #0x3f	; 63
	.db #0x3f	; 63
	.db #0x3f	; 63
	.db #0xf8	; 248
	.db #0xf8	; 248
	.db #0xfc	; 252
	.db #0xfc	; 252
	.db #0xfe	; 254
	.db #0xfe	; 254
	.db #0xfe	; 254
	.db #0xfe	; 254
	.db #0xfe	; 254
	.db #0xfe	; 254
	.db #0xfe	; 254
	.db #0xfe	; 254
	.db #0xfe	; 254
	.db #0xfe	; 254
	.db #0xfe	; 254
	.db #0xfe	; 254
	.db #0x1e	; 30
	.db #0x1e	; 30
	.db #0x1e	; 30
	.db #0x1e	; 30
	.db #0x1e	; 30
	.db #0x1e	; 30
	.db #0x1e	; 30
	.db #0x1e	; 30
	.db #0x1e	; 30
	.db #0x1e	; 30
	.db #0x1e	; 30
	.db #0x1e	; 30
	.db #0x1f	; 31
	.db #0x1f	; 31
	.db #0x1f	; 31
	.db #0x1f	; 31
	.db #0x1c	; 28
	.db #0x1c	; 28
	.db #0x1c	; 28
	.db #0x1c	; 28
	.db #0x1c	; 28
	.db #0x1c	; 28
	.db #0x1c	; 28
	.db #0x1c	; 28
	.db #0x1c	; 28
	.db #0x1c	; 28
	.db #0x1e	; 30
	.db #0x1e	; 30
	.db #0xfe	; 254
	.db #0xfe	; 254
	.db #0x0e	; 14
	.db #0x0e	; 14
	.db #0x3f	; 63
	.db #0x3f	; 63
	.db #0x3f	; 63
	.db #0x3f	; 63
	.db #0x3f	; 63
	.db #0x3f	; 63
	.db #0x3f	; 63
	.db #0x3f	; 63
	.db #0x3f	; 63
	.db #0x3f	; 63
	.db #0x3f	; 63
	.db #0x3f	; 63
	.db #0x3f	; 63
	.db #0x3f	; 63
	.db #0x1f	; 31
	.db #0x1f	; 31
	.db #0x08	; 8
	.db #0x08	; 8
	.db #0x84	; 132
	.db #0x84	; 132
	.db #0x84	; 132
	.db #0x84	; 132
	.db #0xc4	; 196
	.db #0xc4	; 196
	.db #0xc2	; 194
	.db #0xc2	; 194
	.db #0xc2	; 194
	.db #0xc2	; 194
	.db #0xc2	; 194
	.db #0xc2	; 194
	.db #0xe2	; 226
	.db #0xe2	; 226
	.db #0x88	; 136
	.db #0x88	; 136
	.db #0x88	; 136
	.db #0x88	; 136
	.db #0x88	; 136
	.db #0x88	; 136
	.db #0x88	; 136
	.db #0x88	; 136
	.db #0x88	; 136
	.db #0x88	; 136
	.db #0x88	; 136
	.db #0x88	; 136
	.db #0x88	; 136
	.db #0x88	; 136
	.db #0x8f	; 143
	.db #0x8f	; 143
	.db #0x30	; 48	'0'
	.db #0x30	; 48	'0'
	.db #0x38	; 56	'8'
	.db #0x38	; 56	'8'
	.db #0x38	; 56	'8'
	.db #0x38	; 56	'8'
	.db #0x3c	; 60
	.db #0x3c	; 60
	.db #0x3c	; 60
	.db #0x3c	; 60
	.db #0x3e	; 62
	.db #0x3e	; 62
	.db #0x3e	; 62
	.db #0x3e	; 62
	.db #0x3f	; 63
	.db #0x3f	; 63
	.db #0x80	; 128
	.db #0x80	; 128
	.db #0x40	; 64
	.db #0x40	; 64
	.db #0x20	; 32
	.db #0x20	; 32
	.db #0x20	; 32
	.db #0x20	; 32
	.db #0x10	; 16
	.db #0x10	; 16
	.db #0x10	; 16
	.db #0x10	; 16
	.db #0x08	; 8
	.db #0x08	; 8
	.db #0x04	; 4
	.db #0x04	; 4
	.db #0x3e	; 62
	.db #0x3e	; 62
	.db #0x7f	; 127
	.db #0x7f	; 127
	.db #0x7f	; 127
	.db #0x7f	; 127
	.db #0x7f	; 127
	.db #0x7f	; 127
	.db #0x3e	; 62
	.db #0x3e	; 62
	.db #0x1c	; 28
	.db #0x1c	; 28
	.db #0x00	; 0
	.db #0x00	; 0
	.db #0x00	; 0
	.db #0x00	; 0
	.db #0x02	; 2
	.db #0x02	; 2
	.db #0x04	; 4
	.db #0x04	; 4
	.db #0x04	; 4
	.db #0x04	; 4
	.db #0x08	; 8
	.db #0x08	; 8
	.db #0x08	; 8
	.db #0x08	; 8
	.db #0x10	; 16
	.db #0x10	; 16
	.db #0x20	; 32
	.db #0x20	; 32
	.db #0x41	; 65	'A'
	.db #0x41	; 65	'A'
	.db #0x1c	; 28
	.db #0x1c	; 28
	.db #0x3c	; 60
	.db #0x3c	; 60
	.db #0x3c	; 60
	.db #0x3c	; 60
	.db #0x3c	; 60
	.db #0x3c	; 60
	.db #0x7c	; 124
	.db #0x7c	; 124
	.db #0x7c	; 124
	.db #0x7c	; 124
	.db #0xfc	; 252
	.db #0xfc	; 252
	.db #0xfc	; 252
	.db #0xfc	; 252
	.db #0x3f	; 63
	.db #0x3f	; 63
	.db #0x3f	; 63
	.db #0x3f	; 63
	.db #0x3f	; 63
	.db #0x3f	; 63
	.db #0x3f	; 63
	.db #0x3f	; 63
	.db #0x3f	; 63
	.db #0x3f	; 63
	.db #0x3f	; 63
	.db #0x3f	; 63
	.db #0x3f	; 63
	.db #0x3f	; 63
	.db #0x3f	; 63
	.db #0x3f	; 63
	.db #0xfe	; 254
	.db #0xfe	; 254
	.db #0xfe	; 254
	.db #0xfe	; 254
	.db #0xfe	; 254
	.db #0xfe	; 254
	.db #0xfe	; 254
	.db #0xfe	; 254
	.db #0xfe	; 254
	.db #0xfe	; 254
	.db #0xfe	; 254
	.db #0xfe	; 254
	.db #0xfe	; 254
	.db #0xfe	; 254
	.db #0xfe	; 254
	.db #0xfe	; 254
	.db #0x1f	; 31
	.db #0x1f	; 31
	.db #0x1f	; 31
	.db #0x1f	; 31
	.db #0x1f	; 31
	.db #0x1f	; 31
	.db #0x1f	; 31
	.db #0x1f	; 31
	.db #0x1f	; 31
	.db #0x1f	; 31
	.db #0x1f	; 31
	.db #0x1f	; 31
	.db #0x1f	; 31
	.db #0x1f	; 31
	.db #0x1f	; 31
	.db #0x1f	; 31
	.db #0x0e	; 14
	.db #0x0e	; 14
	.db #0x0f	; 15
	.db #0x0f	; 15
	.db #0x0f	; 15
	.db #0x0f	; 15
	.db #0x0f	; 15
	.db #0x0f	; 15
	.db #0x0f	; 15
	.db #0x0f	; 15
	.db #0x0f	; 15
	.db #0x0f	; 15
	.db #0x0f	; 15
	.db #0x0f	; 15
	.db #0x0f	; 15
	.db #0x0f	; 15
	.db #0x1f	; 31
	.db #0x1f	; 31
	.db #0x0f	; 15
	.db #0x0f	; 15
	.db #0x07	; 7
	.db #0x07	; 7
	.db #0x83	; 131
	.db #0x83	; 131
	.db #0xc1	; 193
	.db #0xc1	; 193
	.db #0xc0	; 192
	.db #0xc0	; 192
	.db #0xe0	; 224
	.db #0xe0	; 224
	.db #0xf8	; 248
	.db #0xf8	; 248
	.db #0xe1	; 225
	.db #0xe1	; 225
	.db #0xe1	; 225
	.db #0xe1	; 225
	.db #0xe1	; 225
	.db #0xe1	; 225
	.db #0xe1	; 225
	.db #0xe1	; 225
	.db #0xe3	; 227
	.db #0xe3	; 227
	.db #0x7c	; 124
	.db #0x7c	; 124
	.db #0x00	; 0
	.db #0x00	; 0
	.db #0x01	; 1
	.db #0x01	; 1
	.db #0x00	; 0
	.db #0x00	; 0
	.db #0x10	; 16
	.db #0x10	; 16
	.db #0x28	; 40
	.db #0x28	; 40
	.db #0xc4	; 196
	.db #0xc4	; 196
	.db #0x04	; 4
	.db #0x04	; 4
	.db #0x08	; 8
	.db #0x08	; 8
	.db #0x30	; 48	'0'
	.db #0x30	; 48	'0'
	.db #0xc0	; 192
	.db #0xc0	; 192
	.db #0x90	; 144
	.db #0x90	; 144
	.db #0x90	; 144
	.db #0x90	; 144
	.db #0x90	; 144
	.db #0x90	; 144
	.db #0x90	; 144
	.db #0x90	; 144
	.db #0x90	; 144
	.db #0x90	; 144
	.db #0x90	; 144
	.db #0x90	; 144
	.db #0x90	; 144
	.db #0x90	; 144
	.db #0x90	; 144
	.db #0x90	; 144
	.db #0xbf	; 191
	.db #0xbf	; 191
	.db #0xbf	; 191
	.db #0xbf	; 191
	.db #0xbf	; 191
	.db #0xbf	; 191
	.db #0xbf	; 191
	.db #0xbf	; 191
	.db #0xbf	; 191
	.db #0xbf	; 191
	.db #0xbf	; 191
	.db #0xbf	; 191
	.db #0xbf	; 191
	.db #0xbf	; 191
	.db #0xbf	; 191
	.db #0xbf	; 191
	.db #0x82	; 130
	.db #0x82	; 130
	.db #0xc1	; 193
	.db #0xc1	; 193
	.db #0xe0	; 224
	.db #0xe0	; 224
	.db #0xf8	; 248
	.db #0xf8	; 248
	.db #0xfe	; 254
	.db #0xfe	; 254
	.db #0xff	; 255
	.db #0xff	; 255
	.db #0xff	; 255
	.db #0xff	; 255
	.db #0xff	; 255
	.db #0xff	; 255
	.db #0x00	; 0
	.db #0x00	; 0
	.db #0xff	; 255
	.db #0xff	; 255
	.db #0x00	; 0
	.db #0x00	; 0
	.db #0x00	; 0
	.db #0x00	; 0
	.db #0x01	; 1
	.db #0x01	; 1
	.db #0xff	; 255
	.db #0xff	; 255
	.db #0xe7	; 231
	.db #0xe7	; 231
	.db #0xc3	; 195
	.db #0xc3	; 195
	.db #0x83	; 131
	.db #0x83	; 131
	.db #0x0f	; 15
	.db #0x0f	; 15
	.db #0xff	; 255
	.db #0xff	; 255
	.db #0x8f	; 143
	.db #0x8f	; 143
	.db #0x86	; 134
	.db #0x86	; 134
	.db #0x84	; 132
	.db #0x84	; 132
	.db #0x80	; 128
	.db #0x80	; 128
	.db #0x81	; 129
	.db #0x81	; 129
	.db #0xfc	; 252
	.db #0xfc	; 252
	.db #0xfe	; 254
	.db #0xfe	; 254
	.db #0xc1	; 193
	.db #0xc1	; 193
	.db #0x00	; 0
	.db #0x00	; 0
	.db #0x00	; 0
	.db #0x00	; 0
	.db #0x7c	; 124
	.db #0x7c	; 124
	.db #0xfe	; 254
	.db #0xfe	; 254
	.db #0xff	; 255
	.db #0xff	; 255
	.db #0x3f	; 63
	.db #0x3f	; 63
	.db #0x3f	; 63
	.db #0x3f	; 63
	.db #0xbf	; 191
	.db #0xbf	; 191
	.db #0x7f	; 127
	.db #0x7f	; 127
	.db #0x3e	; 62
	.db #0x3e	; 62
	.db #0x1c	; 28
	.db #0x1c	; 28
	.db #0x09	; 9
	.db #0x09	; 9
	.db #0x01	; 1
	.db #0x01	; 1
	.db #0xfe	; 254
	.db #0xfe	; 254
	.db #0xfe	; 254
	.db #0xfe	; 254
	.db #0xc1	; 193
	.db #0xc1	; 193
	.db #0x00	; 0
	.db #0x00	; 0
	.db #0x00	; 0
	.db #0x00	; 0
	.db #0x78	; 120	'x'
	.db #0x78	; 120	'x'
	.db #0xfe	; 254
	.db #0xfe	; 254
	.db #0xff	; 255
	.db #0xff	; 255
	.db #0x1f	; 31
	.db #0x1f	; 31
	.db #0x1f	; 31
	.db #0x1f	; 31
	.db #0x9f	; 159
	.db #0x9f	; 159
	.db #0x7f	; 127
	.db #0x7f	; 127
	.db #0x3f	; 63
	.db #0x3f	; 63
	.db #0x1f	; 31
	.db #0x1f	; 31
	.db #0x0f	; 15
	.db #0x0f	; 15
	.db #0x0f	; 15
	.db #0x0f	; 15
	.db #0x0f	; 15
	.db #0x0f	; 15
	.db #0x0f	; 15
	.db #0x0f	; 15
	.db #0x0f	; 15
	.db #0x0f	; 15
	.db #0x0f	; 15
	.db #0x0f	; 15
	.db #0x0e	; 14
	.db #0x0e	; 14
	.db #0x0c	; 12
	.db #0x0c	; 12
	.db #0x09	; 9
	.db #0x09	; 9
	.db #0x03	; 3
	.db #0x03	; 3
	.db #0xfe	; 254
	.db #0xfe	; 254
	.db #0xff	; 255
	.db #0xff	; 255
	.db #0xe0	; 224
	.db #0xe0	; 224
	.db #0x00	; 0
	.db #0x00	; 0
	.db #0x00	; 0
	.db #0x00	; 0
	.db #0x7e	; 126
	.db #0x7e	; 126
	.db #0xff	; 255
	.db #0xff	; 255
	.db #0xff	; 255
	.db #0xff	; 255
	.db #0x03	; 3
	.db #0x03	; 3
	.db #0xff	; 255
	.db #0xff	; 255
	.db #0xf1	; 241
	.db #0xf1	; 241
	.db #0x31	; 49	'1'
	.db #0x31	; 49	'1'
	.db #0x19	; 25
	.db #0x19	; 25
	.db #0x09	; 9
	.db #0x09	; 9
	.db #0x8d	; 141
	.db #0x8d	; 141
	.db #0xc5	; 197
	.db #0xc5	; 197
	.db #0x90	; 144
	.db #0x90	; 144
	.db #0x90	; 144
	.db #0x90	; 144
	.db #0x90	; 144
	.db #0x90	; 144
	.db #0x50	; 80	'P'
	.db #0x50	; 80	'P'
	.db #0x50	; 80	'P'
	.db #0x50	; 80	'P'
	.db #0x50	; 80	'P'
	.db #0x50	; 80	'P'
	.db #0x50	; 80	'P'
	.db #0x50	; 80	'P'
	.db #0x30	; 48	'0'
	.db #0x30	; 48	'0'
	.db #0xc3	; 195
	.db #0xc3	; 195
	.db #0xc3	; 195
	.db #0xc3	; 195
	.db #0xc3	; 195
	.db #0xc3	; 195
	.db #0xc3	; 195
	.db #0xc3	; 195
	.db #0xc3	; 195
	.db #0xc3	; 195
	.db #0xc3	; 195
	.db #0xc3	; 195
	.db #0xc3	; 195
	.db #0xc3	; 195
	.db #0xc3	; 195
	.db #0xc3	; 195
	.db #0x83	; 131
	.db #0x83	; 131
	.db #0x87	; 135
	.db #0x87	; 135
	.db #0x87	; 135
	.db #0x87	; 135
	.db #0x87	; 135
	.db #0x87	; 135
	.db #0x87	; 135
	.db #0x87	; 135
	.db #0x87	; 135
	.db #0x87	; 135
	.db #0x87	; 135
	.db #0x87	; 135
	.db #0x87	; 135
	.db #0x87	; 135
	.db #0x87	; 135
	.db #0x87	; 135
	.db #0x87	; 135
	.db #0x87	; 135
	.db #0x87	; 135
	.db #0x87	; 135
	.db #0x87	; 135
	.db #0x87	; 135
	.db #0x87	; 135
	.db #0x87	; 135
	.db #0x87	; 135
	.db #0x87	; 135
	.db #0x87	; 135
	.db #0x87	; 135
	.db #0x87	; 135
	.db #0x87	; 135
	.db #0x03	; 3
	.db #0x03	; 3
	.db #0x07	; 7
	.db #0x07	; 7
	.db #0x07	; 7
	.db #0x07	; 7
	.db #0x0f	; 15
	.db #0x0f	; 15
	.db #0x0f	; 15
	.db #0x0f	; 15
	.db #0x0f	; 15
	.db #0x0f	; 15
	.db #0x0f	; 15
	.db #0x0f	; 15
	.db #0x0f	; 15
	.db #0x0f	; 15
	.db #0xe3	; 227
	.db #0xe3	; 227
	.db #0xe3	; 227
	.db #0xe3	; 227
	.db #0xe1	; 225
	.db #0xe1	; 225
	.db #0xf1	; 241
	.db #0xf1	; 241
	.db #0xd1	; 209
	.db #0xd1	; 209
	.db #0xd1	; 209
	.db #0xd1	; 209
	.db #0x91	; 145
	.db #0x91	; 145
	.db #0x91	; 145
	.db #0x91	; 145
	.db #0x30	; 48	'0'
	.db #0x30	; 48	'0'
	.db #0x10	; 16
	.db #0x10	; 16
	.db #0x10	; 16
	.db #0x10	; 16
	.db #0x10	; 16
	.db #0x10	; 16
	.db #0x10	; 16
	.db #0x10	; 16
	.db #0x10	; 16
	.db #0x10	; 16
	.db #0x10	; 16
	.db #0x10	; 16
	.db #0x10	; 16
	.db #0x10	; 16
	.db #0xff	; 255
	.db #0xff	; 255
	.db #0xff	; 255
	.db #0xff	; 255
	.db #0xff	; 255
	.db #0xff	; 255
	.db #0xff	; 255
	.db #0xff	; 255
	.db #0xff	; 255
	.db #0xff	; 255
	.db #0xff	; 255
	.db #0xff	; 255
	.db #0xff	; 255
	.db #0xff	; 255
	.db #0x00	; 0
	.db #0x00	; 0
	.db #0xff	; 255
	.db #0xff	; 255
	.db #0xff	; 255
	.db #0xff	; 255
	.db #0xff	; 255
	.db #0xff	; 255
	.db #0xff	; 255
	.db #0xff	; 255
	.db #0xff	; 255
	.db #0xff	; 255
	.db #0xff	; 255
	.db #0xff	; 255
	.db #0xff	; 255
	.db #0xff	; 255
	.db #0x01	; 1
	.db #0x01	; 1
	.db #0xc3	; 195
	.db #0xc3	; 195
	.db #0xc3	; 195
	.db #0xc3	; 195
	.db #0xc3	; 195
	.db #0xc3	; 195
	.db #0xc3	; 195
	.db #0xc3	; 195
	.db #0xc3	; 195
	.db #0xc3	; 195
	.db #0xc3	; 195
	.db #0xc3	; 195
	.db #0xc3	; 195
	.db #0xc3	; 195
	.db #0xc3	; 195
	.db #0xc3	; 195
	.db #0x87	; 135
	.db #0x87	; 135
	.db #0x87	; 135
	.db #0x87	; 135
	.db #0x87	; 135
	.db #0x87	; 135
	.db #0x87	; 135
	.db #0x87	; 135
	.db #0x87	; 135
	.db #0x87	; 135
	.db #0x87	; 135
	.db #0x87	; 135
	.db #0x87	; 135
	.db #0x87	; 135
	.db #0x87	; 135
	.db #0x87	; 135
	.db #0x0f	; 15
	.db #0x0f	; 15
	.db #0x0f	; 15
	.db #0x0f	; 15
	.db #0x0f	; 15
	.db #0x0f	; 15
	.db #0x07	; 7
	.db #0x07	; 7
	.db #0x07	; 7
	.db #0x07	; 7
	.db #0x07	; 7
	.db #0x07	; 7
	.db #0x03	; 3
	.db #0x03	; 3
	.db #0x01	; 1
	.db #0x01	; 1
	.db #0xff	; 255
	.db #0xff	; 255
	.db #0xff	; 255
	.db #0xff	; 255
	.db #0xff	; 255
	.db #0xff	; 255
	.db #0xfe	; 254
	.db #0xfe	; 254
	.db #0xfe	; 254
	.db #0xfe	; 254
	.db #0xfc	; 252
	.db #0xfc	; 252
	.db #0xfc	; 252
	.db #0xfc	; 252
	.db #0xf8	; 248
	.db #0xf8	; 248
	.db #0x11	; 17
	.db #0x11	; 17
	.db #0x11	; 17
	.db #0x11	; 17
	.db #0x11	; 17
	.db #0x11	; 17
	.db #0x11	; 17
	.db #0x11	; 17
	.db #0x21	; 33
	.db #0x21	; 33
	.db #0x22	; 34
	.db #0x22	; 34
	.db #0x42	; 66	'B'
	.db #0x42	; 66	'B'
	.db #0x84	; 132
	.db #0x84	; 132
	.db #0x10	; 16
	.db #0x10	; 16
	.db #0x10	; 16
	.db #0x10	; 16
	.db #0x10	; 16
	.db #0x10	; 16
	.db #0x10	; 16
	.db #0x10	; 16
	.db #0x0f	; 15
	.db #0x0f	; 15
	.db #0x00	; 0
	.db #0x00	; 0
	.db #0x00	; 0
	.db #0x00	; 0
	.db #0x00	; 0
	.db #0x00	; 0
	.db #0x00	; 0
	.db #0x00	; 0
	.db #0x00	; 0
	.db #0x00	; 0
	.db #0x00	; 0
	.db #0x00	; 0
	.db #0x00	; 0
	.db #0x00	; 0
	.db #0xff	; 255
	.db #0xff	; 255
	.db #0x83	; 131
	.db #0x83	; 131
	.db #0x41	; 65	'A'
	.db #0x41	; 65	'A'
	.db #0x20	; 32
	.db #0x20	; 32
	.db #0x01	; 1
	.db #0x01	; 1
	.db #0x01	; 1
	.db #0x01	; 1
	.db #0x01	; 1
	.db #0x01	; 1
	.db #0x01	; 1
	.db #0x01	; 1
	.db #0xff	; 255
	.db #0xff	; 255
	.db #0xff	; 255
	.db #0xff	; 255
	.db #0xff	; 255
	.db #0xff	; 255
	.db #0xff	; 255
	.db #0xff	; 255
	.db #0xc3	; 195
	.db #0xc3	; 195
	.db #0xc3	; 195
	.db #0xc3	; 195
	.db #0xc3	; 195
	.db #0xc3	; 195
	.db #0xc3	; 195
	.db #0xc3	; 195
	.db #0xff	; 255
	.db #0xff	; 255
	.db #0xff	; 255
	.db #0xff	; 255
	.db #0xff	; 255
	.db #0xff	; 255
	.db #0xff	; 255
	.db #0xff	; 255
	.db #0x87	; 135
	.db #0x87	; 135
	.db #0x87	; 135
	.db #0x87	; 135
	.db #0x87	; 135
	.db #0x87	; 135
	.db #0x87	; 135
	.db #0x87	; 135
	.db #0xff	; 255
	.db #0xff	; 255
	.db #0xff	; 255
	.db #0xff	; 255
	.db #0xff	; 255
	.db #0xff	; 255
	.db #0xff	; 255
	.db #0xff	; 255
	.db #0x00	; 0
	.db #0x00	; 0
	.db #0x0c	; 12
	.db #0x0c	; 12
	.db #0x0e	; 14
	.db #0x0e	; 14
	.db #0x1f	; 31
	.db #0x1f	; 31
	.db #0xff	; 255
	.db #0xff	; 255
	.db #0xff	; 255
	.db #0xff	; 255
	.db #0xff	; 255
	.db #0xff	; 255
	.db #0xff	; 255
	.db #0xff	; 255
	.db #0x7f	; 127
	.db #0x7f	; 127
	.db #0x00	; 0
	.db #0x00	; 0
	.db #0x00	; 0
	.db #0x00	; 0
	.db #0x80	; 128
	.db #0x80	; 128
	.db #0xff	; 255
	.db #0xff	; 255
	.db #0xc1	; 193
	.db #0xc1	; 193
	.db #0x82	; 130
	.db #0x82	; 130
	.db #0x04	; 4
	.db #0x04	; 4
	.db #0x04	; 4
	.db #0x04	; 4
	.db #0x08	; 8
	.db #0x08	; 8
	.db #0x30	; 48	'0'
	.db #0x30	; 48	'0'
	.db #0xc0	; 192
	.db #0xc0	; 192
	.db #0x00	; 0
	.db #0x00	; 0
	.db #0x00	; 0
	.db #0x00	; 0
	.db #0x00	; 0
	.db #0x00	; 0
	.db #0x00	; 0
	.db #0x00	; 0
	.db #0x10	; 16
	.db #0x10	; 16
	.db #0x08	; 8
	.db #0x08	; 8
	.db #0x04	; 4
	.db #0x04	; 4
	.db #0x02	; 2
	.db #0x02	; 2
	.db #0x01	; 1
	.db #0x01	; 1
	.db #0x00	; 0
	.db #0x00	; 0
	.db #0x00	; 0
	.db #0x00	; 0
	.db #0x00	; 0
	.db #0x00	; 0
	.db #0x7f	; 127
	.db #0x7f	; 127
	.db #0x3f	; 63
	.db #0x3f	; 63
	.db #0x1f	; 31
	.db #0x1f	; 31
	.db #0x0f	; 15
	.db #0x0f	; 15
	.db #0x03	; 3
	.db #0x03	; 3
	.db #0x81	; 129
	.db #0x81	; 129
	.db #0x40	; 64
	.db #0x40	; 64
	.db #0x20	; 32
	.db #0x20	; 32
	.db #0xff	; 255
	.db #0xff	; 255
	.db #0xff	; 255
	.db #0xff	; 255
	.db #0xff	; 255
	.db #0xff	; 255
	.db #0xff	; 255
	.db #0xff	; 255
	.db #0xff	; 255
	.db #0xff	; 255
	.db #0xff	; 255
	.db #0xff	; 255
	.db #0xff	; 255
	.db #0xff	; 255
	.db #0x3f	; 63
	.db #0x3f	; 63
	.db #0xff	; 255
	.db #0xff	; 255
	.db #0xff	; 255
	.db #0xff	; 255
	.db #0xff	; 255
	.db #0xff	; 255
	.db #0xff	; 255
	.db #0xff	; 255
	.db #0xff	; 255
	.db #0xff	; 255
	.db #0xff	; 255
	.db #0xff	; 255
	.db #0xfe	; 254
	.db #0xfe	; 254
	.db #0xfc	; 252
	.db #0xfc	; 252
	.db #0xfe	; 254
	.db #0xfe	; 254
	.db #0xfc	; 252
	.db #0xfc	; 252
	.db #0xf8	; 248
	.db #0xf8	; 248
	.db #0xf0	; 240
	.db #0xf0	; 240
	.db #0xc0	; 192
	.db #0xc0	; 192
	.db #0x81	; 129
	.db #0x81	; 129
	.db #0x02	; 2
	.db #0x02	; 2
	.db #0x0c	; 12
	.db #0x0c	; 12
	.db #0x08	; 8
	.db #0x08	; 8
	.db #0x10	; 16
	.db #0x10	; 16
	.db #0x20	; 32
	.db #0x20	; 32
	.db #0x40	; 64
	.db #0x40	; 64
	.db #0x80	; 128
	.db #0x80	; 128
	.db #0x00	; 0
	.db #0x00	; 0
	.db #0x00	; 0
	.db #0x00	; 0
	.db #0x00	; 0
	.db #0x00	; 0
	.db #0x08	; 8
	.db #0x08	; 8
	.db #0x04	; 4
	.db #0x04	; 4
	.db #0x03	; 3
	.db #0x03	; 3
	.db #0x00	; 0
	.db #0x00	; 0
	.db #0x00	; 0
	.db #0x00	; 0
	.db #0x00	; 0
	.db #0x00	; 0
	.db #0x00	; 0
	.db #0x00	; 0
	.db #0x00	; 0
	.db #0x00	; 0
	.db #0x1f	; 31
	.db #0x1f	; 31
	.db #0x03	; 3
	.db #0x03	; 3
	.db #0x00	; 0
	.db #0x00	; 0
	.db #0xc0	; 192
	.db #0xc0	; 192
	.db #0x30	; 48	'0'
	.db #0x30	; 48	'0'
	.db #0x0c	; 12
	.db #0x0c	; 12
	.db #0x03	; 3
	.db #0x03	; 3
	.db #0x00	; 0
	.db #0x00	; 0
	.db #0xff	; 255
	.db #0xff	; 255
	.db #0xff	; 255
	.db #0xff	; 255
	.db #0xff	; 255
	.db #0xff	; 255
	.db #0x1f	; 31
	.db #0x1f	; 31
	.db #0x00	; 0
	.db #0x00	; 0
	.db #0x00	; 0
	.db #0x00	; 0
	.db #0xe0	; 224
	.db #0xe0	; 224
	.db #0x1f	; 31
	.db #0x1f	; 31
	.db #0xff	; 255
	.db #0xff	; 255
	.db #0xff	; 255
	.db #0xff	; 255
	.db #0xff	; 255
	.db #0xff	; 255
	.db #0xff	; 255
	.db #0xff	; 255
	.db #0x00	; 0
	.db #0x00	; 0
	.db #0x00	; 0
	.db #0x00	; 0
	.db #0x00	; 0
	.db #0x00	; 0
	.db #0xff	; 255
	.db #0xff	; 255
	.db #0xff	; 255
	.db #0xff	; 255
	.db #0xff	; 255
	.db #0xff	; 255
	.db #0xff	; 255
	.db #0xff	; 255
	.db #0xff	; 255
	.db #0xff	; 255
	.db #0x00	; 0
	.db #0x00	; 0
	.db #0x00	; 0
	.db #0x00	; 0
	.db #0x00	; 0
	.db #0x00	; 0
	.db #0xff	; 255
	.db #0xff	; 255
	.db #0xff	; 255
	.db #0xff	; 255
	.db #0xff	; 255
	.db #0xff	; 255
	.db #0xfe	; 254
	.db #0xfe	; 254
	.db #0xf0	; 240
	.db #0xf0	; 240
	.db #0x00	; 0
	.db #0x00	; 0
	.db #0x00	; 0
	.db #0x00	; 0
	.db #0x0f	; 15
	.db #0x0f	; 15
	.db #0xf0	; 240
	.db #0xf0	; 240
	.db #0xe0	; 224
	.db #0xe0	; 224
	.db #0xc0	; 192
	.db #0xc0	; 192
	.db #0x00	; 0
	.db #0x00	; 0
	.db #0x03	; 3
	.db #0x03	; 3
	.db #0x0c	; 12
	.db #0x0c	; 12
	.db #0x70	; 112	'p'
	.db #0x70	; 112	'p'
	.db #0x80	; 128
	.db #0x80	; 128
	.db #0x00	; 0
	.db #0x00	; 0
	.db #0x10	; 16
	.db #0x10	; 16
	.db #0x60	; 96
	.db #0x60	; 96
	.db #0x80	; 128
	.db #0x80	; 128
	.db #0x00	; 0
	.db #0x00	; 0
	.db #0x00	; 0
	.db #0x00	; 0
	.db #0x00	; 0
	.db #0x00	; 0
	.db #0x00	; 0
	.db #0x00	; 0
	.db #0x00	; 0
	.db #0x00	; 0
	.db #0x3c	; 60
	.db #0x3c	; 60
	.db #0x42	; 66	'B'
	.db #0x42	; 66	'B'
	.db #0x99	; 153
	.db #0x99	; 153
	.db #0xa1	; 161
	.db #0xa1	; 161
	.db #0xa1	; 161
	.db #0xa1	; 161
	.db #0x99	; 153
	.db #0x99	; 153
	.db #0x42	; 66	'B'
	.db #0x42	; 66	'B'
	.db #0x3c	; 60
	.db #0x3c	; 60
	.db #0x00	; 0
	.db #0x00	; 0
	.db #0x3c	; 60
	.db #0x3c	; 60
	.db #0x42	; 66	'B'
	.db #0x42	; 66	'B'
	.db #0x02	; 2
	.db #0x02	; 2
	.db #0x3c	; 60
	.db #0x3c	; 60
	.db #0x40	; 64
	.db #0x40	; 64
	.db #0x7e	; 126
	.db #0x7e	; 126
	.db #0x00	; 0
	.db #0x00	; 0
	.db #0x00	; 0
	.db #0x00	; 0
	.db #0x3c	; 60
	.db #0x3c	; 60
	.db #0x46	; 70	'F'
	.db #0x46	; 70	'F'
	.db #0x4a	; 74	'J'
	.db #0x4a	; 74	'J'
	.db #0x52	; 82	'R'
	.db #0x52	; 82	'R'
	.db #0x62	; 98	'b'
	.db #0x62	; 98	'b'
	.db #0x3c	; 60
	.db #0x3c	; 60
	.db #0x00	; 0
	.db #0x00	; 0
	.db #0x00	; 0
	.db #0x00	; 0
	.db #0x10	; 16
	.db #0x10	; 16
	.db #0x30	; 48	'0'
	.db #0x30	; 48	'0'
	.db #0x50	; 80	'P'
	.db #0x50	; 80	'P'
	.db #0x10	; 16
	.db #0x10	; 16
	.db #0x10	; 16
	.db #0x10	; 16
	.db #0x7c	; 124
	.db #0x7c	; 124
	.db #0x00	; 0
	.db #0x00	; 0
	.db #0x00	; 0
	.db #0x00	; 0
	.db #0x78	; 120	'x'
	.db #0x78	; 120	'x'
	.db #0x84	; 132
	.db #0x84	; 132
	.db #0x80	; 128
	.db #0x80	; 128
	.db #0x9c	; 156
	.db #0x9c	; 156
	.db #0x84	; 132
	.db #0x84	; 132
	.db #0x79	; 121	'y'
	.db #0x79	; 121	'y'
	.db #0x00	; 0
	.db #0x00	; 0
	.db #0x00	; 0
	.db #0x00	; 0
	.db #0x3c	; 60
	.db #0x3c	; 60
	.db #0x42	; 66	'B'
	.db #0x42	; 66	'B'
	.db #0x40	; 64
	.db #0x40	; 64
	.db #0x40	; 64
	.db #0x40	; 64
	.db #0x42	; 66	'B'
	.db #0x42	; 66	'B'
	.db #0x3c	; 60
	.db #0x3c	; 60
	.db #0x00	; 0
	.db #0x00	; 0
	.db #0x00	; 0
	.db #0x00	; 0
	.db #0x3c	; 60
	.db #0x3c	; 60
	.db #0x42	; 66	'B'
	.db #0x42	; 66	'B'
	.db #0x42	; 66	'B'
	.db #0x42	; 66	'B'
	.db #0x42	; 66	'B'
	.db #0x42	; 66	'B'
	.db #0x42	; 66	'B'
	.db #0x42	; 66	'B'
	.db #0x3c	; 60
	.db #0x3c	; 60
	.db #0x00	; 0
	.db #0x00	; 0
	.db #0x00	; 0
	.db #0x00	; 0
	.db #0x42	; 66	'B'
	.db #0x42	; 66	'B'
	.db #0x42	; 66	'B'
	.db #0x42	; 66	'B'
	.db #0x42	; 66	'B'
	.db #0x42	; 66	'B'
	.db #0x42	; 66	'B'
	.db #0x42	; 66	'B'
	.db #0x42	; 66	'B'
	.db #0x42	; 66	'B'
	.db #0x3c	; 60
	.db #0x3c	; 60
	.db #0x00	; 0
	.db #0x00	; 0
	.db #0x00	; 0
	.db #0x00	; 0
	.db #0x40	; 64
	.db #0x40	; 64
	.db #0x40	; 64
	.db #0x40	; 64
	.db #0x40	; 64
	.db #0x40	; 64
	.db #0x40	; 64
	.db #0x40	; 64
	.db #0x40	; 64
	.db #0x40	; 64
	.db #0x7c	; 124
	.db #0x7c	; 124
	.db #0x00	; 0
	.db #0x00	; 0
	.db #0x00	; 0
	.db #0x00	; 0
	.db #0x7c	; 124
	.db #0x7c	; 124
	.db #0x42	; 66	'B'
	.db #0x42	; 66	'B'
	.db #0x7c	; 124
	.db #0x7c	; 124
	.db #0x42	; 66	'B'
	.db #0x42	; 66	'B'
	.db #0x42	; 66	'B'
	.db #0x42	; 66	'B'
	.db #0x7c	; 124
	.db #0x7c	; 124
	.db #0x00	; 0
	.db #0x00	; 0
	.db #0x00	; 0
	.db #0x00	; 0
	.db #0x82	; 130
	.db #0x82	; 130
	.db #0x44	; 68	'D'
	.db #0x44	; 68	'D'
	.db #0x28	; 40
	.db #0x28	; 40
	.db #0x10	; 16
	.db #0x10	; 16
	.db #0x10	; 16
	.db #0x10	; 16
	.db #0x10	; 16
	.db #0x10	; 16
	.db #0x00	; 0
	.db #0x00	; 0
_IonicLimbMap:
	.db #0x00	; 0
	.db #0x00	; 0
	.db #0x00	; 0
	.db #0x00	; 0
	.db #0x00	; 0
	.db #0x00	; 0
	.db #0x00	; 0
	.db #0x00	; 0
	.db #0x00	; 0
	.db #0x00	; 0
	.db #0x00	; 0
	.db #0x00	; 0
	.db #0x00	; 0
	.db #0x00	; 0
	.db #0x00	; 0
	.db #0x00	; 0
	.db #0x00	; 0
	.db #0x00	; 0
	.db #0x00	; 0
	.db #0x00	; 0
	.db #0x00	; 0
	.db #0x00	; 0
	.db #0x00	; 0
	.db #0x00	; 0
	.db #0x00	; 0
	.db #0x00	; 0
	.db #0x00	; 0
	.db #0x00	; 0
	.db #0x00	; 0
	.db #0x00	; 0
	.db #0x00	; 0
	.db #0x00	; 0
	.db #0x00	; 0
	.db #0x00	; 0
	.db #0x00	; 0
	.db #0x00	; 0
	.db #0x00	; 0
	.db #0x00	; 0
	.db #0x00	; 0
	.db #0x00	; 0
	.db #0x00	; 0
	.db #0x00	; 0
	.db #0x00	; 0
	.db #0x00	; 0
	.db #0x00	; 0
	.db #0x00	; 0
	.db #0x01	; 1
	.db #0x02	; 2
	.db #0x03	; 3
	.db #0x04	; 4
	.db #0x05	; 5
	.db #0x06	; 6
	.db #0x07	; 7
	.db #0x00	; 0
	.db #0x00	; 0
	.db #0x00	; 0
	.db #0x00	; 0
	.db #0x00	; 0
	.db #0x00	; 0
	.db #0x00	; 0
	.db #0x00	; 0
	.db #0x00	; 0
	.db #0x00	; 0
	.db #0x00	; 0
	.db #0x00	; 0
	.db #0x08	; 8
	.db #0x09	; 9
	.db #0x0a	; 10
	.db #0x0b	; 11
	.db #0x0b	; 11
	.db #0x0b	; 11
	.db #0x0b	; 11
	.db #0x0c	; 12
	.db #0x0d	; 13
	.db #0x0e	; 14
	.db #0x00	; 0
	.db #0x00	; 0
	.db #0x00	; 0
	.db #0x00	; 0
	.db #0x00	; 0
	.db #0x00	; 0
	.db #0x00	; 0
	.db #0x00	; 0
	.db #0x00	; 0
	.db #0x0f	; 15
	.db #0x10	; 16
	.db #0x11	; 17
	.db #0x12	; 18
	.db #0x13	; 19
	.db #0x0b	; 11
	.db #0x0b	; 11
	.db #0x0b	; 11
	.db #0x14	; 20
	.db #0x15	; 21
	.db #0x16	; 22
	.db #0x17	; 23
	.db #0x00	; 0
	.db #0x00	; 0
	.db #0x00	; 0
	.db #0x00	; 0
	.db #0x00	; 0
	.db #0x00	; 0
	.db #0x00	; 0
	.db #0x00	; 0
	.db #0x18	; 24
	.db #0x19	; 25
	.db #0x1a	; 26
	.db #0x1b	; 27
	.db #0x1c	; 28
	.db #0x1d	; 29
	.db #0x1e	; 30
	.db #0x1f	; 31
	.db #0x20	; 32
	.db #0x21	; 33
	.db #0x22	; 34
	.db #0x23	; 35
	.db #0x00	; 0
	.db #0x00	; 0
	.db #0x00	; 0
	.db #0x00	; 0
	.db #0x00	; 0
	.db #0x00	; 0
	.db #0x00	; 0
	.db #0x00	; 0
	.db #0x24	; 36
	.db #0x25	; 37
	.db #0x26	; 38
	.db #0x27	; 39
	.db #0x28	; 40
	.db #0x29	; 41
	.db #0x2a	; 42
	.db #0x2b	; 43
	.db #0x2c	; 44
	.db #0x2d	; 45
	.db #0x2e	; 46
	.db #0x2f	; 47
	.db #0x00	; 0
	.db #0x00	; 0
	.db #0x00	; 0
	.db #0x00	; 0
	.db #0x00	; 0
	.db #0x00	; 0
	.db #0x00	; 0
	.db #0x00	; 0
	.db #0x30	; 48	'0'
	.db #0x31	; 49	'1'
	.db #0x32	; 50	'2'
	.db #0x33	; 51	'3'
	.db #0x34	; 52	'4'
	.db #0x35	; 53	'5'
	.db #0x36	; 54	'6'
	.db #0x37	; 55	'7'
	.db #0x38	; 56	'8'
	.db #0x39	; 57	'9'
	.db #0x3a	; 58
	.db #0x3b	; 59
	.db #0x3c	; 60
	.db #0x00	; 0
	.db #0x00	; 0
	.db #0x00	; 0
	.db #0x00	; 0
	.db #0x00	; 0
	.db #0x00	; 0
	.db #0x00	; 0
	.db #0x3d	; 61
	.db #0x3e	; 62
	.db #0x3f	; 63
	.db #0x40	; 64
	.db #0x41	; 65	'A'
	.db #0x42	; 66	'B'
	.db #0x43	; 67	'C'
	.db #0x44	; 68	'D'
	.db #0x45	; 69	'E'
	.db #0x46	; 70	'F'
	.db #0x47	; 71	'G'
	.db #0x48	; 72	'H'
	.db #0x00	; 0
	.db #0x00	; 0
	.db #0x00	; 0
	.db #0x00	; 0
	.db #0x00	; 0
	.db #0x00	; 0
	.db #0x00	; 0
	.db #0x00	; 0
	.db #0x49	; 73	'I'
	.db #0x0b	; 11
	.db #0x0b	; 11
	.db #0x4a	; 74	'J'
	.db #0x4b	; 75	'K'
	.db #0x0b	; 11
	.db #0x4b	; 75	'K'
	.db #0x0b	; 11
	.db #0x4c	; 76	'L'
	.db #0x4d	; 77	'M'
	.db #0x0b	; 11
	.db #0x4e	; 78	'N'
	.db #0x00	; 0
	.db #0x00	; 0
	.db #0x00	; 0
	.db #0x00	; 0
	.db #0x00	; 0
	.db #0x00	; 0
	.db #0x00	; 0
	.db #0x00	; 0
	.db #0x4f	; 79	'O'
	.db #0x50	; 80	'P'
	.db #0x51	; 81	'Q'
	.db #0x52	; 82	'R'
	.db #0x53	; 83	'S'
	.db #0x0b	; 11
	.db #0x53	; 83	'S'
	.db #0x0b	; 11
	.db #0x53	; 83	'S'
	.db #0x54	; 84	'T'
	.db #0x55	; 85	'U'
	.db #0x56	; 86	'V'
	.db #0x00	; 0
	.db #0x00	; 0
	.db #0x00	; 0
	.db #0x00	; 0
	.db #0x00	; 0
	.db #0x00	; 0
	.db #0x00	; 0
	.db #0x00	; 0
	.db #0x57	; 87	'W'
	.db #0x58	; 88	'X'
	.db #0x59	; 89	'Y'
	.db #0x5a	; 90	'Z'
	.db #0x5b	; 91
	.db #0x0b	; 11
	.db #0x5b	; 91
	.db #0x0b	; 11
	.db #0x5b	; 91
	.db #0x5c	; 92
	.db #0x5d	; 93
	.db #0x5e	; 94
	.db #0x00	; 0
	.db #0x00	; 0
	.db #0x00	; 0
	.db #0x00	; 0
	.db #0x00	; 0
	.db #0x00	; 0
	.db #0x00	; 0
	.db #0x00	; 0
	.db #0x00	; 0
	.db #0x5f	; 95
	.db #0x60	; 96
	.db #0x61	; 97	'a'
	.db #0x0b	; 11
	.db #0x0b	; 11
	.db #0x0b	; 11
	.db #0x0b	; 11
	.db #0x62	; 98	'b'
	.db #0x63	; 99	'c'
	.db #0x64	; 100	'd'
	.db #0x00	; 0
	.db #0x00	; 0
	.db #0x00	; 0
	.db #0x00	; 0
	.db #0x00	; 0
	.db #0x00	; 0
	.db #0x00	; 0
	.db #0x00	; 0
	.db #0x00	; 0
	.db #0x00	; 0
	.db #0x00	; 0
	.db #0x65	; 101	'e'
	.db #0x66	; 102	'f'
	.db #0x67	; 103	'g'
	.db #0x68	; 104	'h'
	.db #0x69	; 105	'i'
	.db #0x6a	; 106	'j'
	.db #0x6b	; 107	'k'
	.db #0x6c	; 108	'l'
	.db #0x00	; 0
	.db #0x00	; 0
	.db #0x00	; 0
	.db #0x00	; 0
	.db #0x00	; 0
	.db #0x00	; 0
	.db #0x00	; 0
	.db #0x00	; 0
	.db #0x00	; 0
	.db #0x00	; 0
	.db #0x00	; 0
	.db #0x00	; 0
	.db #0x00	; 0
	.db #0x00	; 0
	.db #0x00	; 0
	.db #0x00	; 0
	.db #0x00	; 0
	.db #0x00	; 0
	.db #0x00	; 0
	.db #0x00	; 0
	.db #0x00	; 0
	.db #0x00	; 0
	.db #0x00	; 0
	.db #0x00	; 0
	.db #0x00	; 0
	.db #0x00	; 0
	.db #0x00	; 0
	.db #0x00	; 0
	.db #0x00	; 0
	.db #0x6d	; 109	'm'
	.db #0x00	; 0
	.db #0x6e	; 110	'n'
	.db #0x6f	; 111	'o'
	.db #0x6e	; 110	'n'
	.db #0x70	; 112	'p'
	.db #0x00	; 0
	.db #0x71	; 113	'q'
	.db #0x72	; 114	'r'
	.db #0x73	; 115	's'
	.db #0x74	; 116	't'
	.db #0x75	; 117	'u'
	.db #0x76	; 118	'v'
	.db #0x77	; 119	'w'
	.db #0x00	; 0
	.db #0x00	; 0
	.db #0x00	; 0
	.db #0x00	; 0
	.db #0x00	; 0
	.db #0x00	; 0
	.db #0x00	; 0
	.db #0x00	; 0
	.db #0x00	; 0
	.db #0x00	; 0
	.db #0x00	; 0
	.db #0x00	; 0
	.db #0x00	; 0
	.db #0x00	; 0
	.db #0x00	; 0
	.db #0x00	; 0
	.db #0x00	; 0
	.db #0x00	; 0
	.db #0x00	; 0
	.db #0x00	; 0
	.db #0x00	; 0
	.db #0x00	; 0
	.db #0x00	; 0
	.db #0x00	; 0
	.db #0x00	; 0
	.db #0x00	; 0
	.db #0x00	; 0
	.db #0x00	; 0
	.db #0x00	; 0
	.db #0x00	; 0
	.db #0x00	; 0
	.db #0x00	; 0
	.db #0x00	; 0
	.db #0x00	; 0
	.db #0x00	; 0
	.db #0x00	; 0
	.db #0x00	; 0
	.db #0x00	; 0
	.db #0x00	; 0
	.db #0x00	; 0
	.db #0x00	; 0
	.db #0x00	; 0
	.db #0x00	; 0
;P:\04_Computer_Science\C_CPP\Gameboy\02_Domination\ionic_limb_lib\IonicLimb.c:309: void initSound(){
;	---------------------------------
; Function initSound
; ---------------------------------
_initSound::
;P:\04_Computer_Science\C_CPP\Gameboy\02_Domination\ionic_limb_lib\IonicLimb.c:311: NR52_REG = 0x80; // is 1000 0000 in binary and turns on sound
	ld	a, #0x80
	ldh	(_NR52_REG+0),a
;P:\04_Computer_Science\C_CPP\Gameboy\02_Domination\ionic_limb_lib\IonicLimb.c:312: NR50_REG = 0x77; // sets the volume for both left and right channel just set to max 0x77
	ld	a, #0x77
	ldh	(_NR50_REG+0),a
;P:\04_Computer_Science\C_CPP\Gameboy\02_Domination\ionic_limb_lib\IonicLimb.c:313: NR51_REG = 0xFF; // is 1111 1111 in binary, select which chanels we want to use in this case all of them. One bit for the L one bit for the R of all four channels
	ld	a, #0xff
	ldh	(_NR51_REG+0),a
;P:\04_Computer_Science\C_CPP\Gameboy\02_Domination\ionic_limb_lib\IonicLimb.c:314: }
	ret
;P:\04_Computer_Science\C_CPP\Gameboy\02_Domination\ionic_limb_lib\IonicLimb.c:331: UINT8 getRand(UINT8 min, UINT8 max){
;	---------------------------------
; Function getRand
; ---------------------------------
_getRand::
	dec	sp
;P:\04_Computer_Science\C_CPP\Gameboy\02_Domination\ionic_limb_lib\IonicLimb.c:332: return (((UINT8)arand()) % ((UINT8)max + (UINT8) 1 - min)) + min;
	call	_arand
	ldhl	sp,	#0
	ld	(hl), e
	ldhl	sp,	#4
	ld	c, (hl)
	ld	b, #0x00
	inc	bc
	dec	hl
	ld	e, (hl)
	ld	d, #0x00
	ld	a, c
	sub	a, e
	ld	e, a
	ld	a, b
	sbc	a, d
	ld	d, a
	ldhl	sp,	#0
	ld	c, (hl)
	ld	b, #0x00
	push	de
	push	bc
	call	__modsint
	add	sp, #4
	ldhl	sp,	#3
	ld	a, (hl)
	add	a, e
	ld	e, a
;P:\04_Computer_Science\C_CPP\Gameboy\02_Domination\ionic_limb_lib\IonicLimb.c:333: }
	inc	sp
	ret
;P:\04_Computer_Science\C_CPP\Gameboy\02_Domination\ionic_limb_lib\IonicLimb.c:335: void seedRandomStartScreen(unsigned char tiles[], unsigned char map[], UINT8 first_tile, UINT8 nb_tiles, char confirmationChar, UINT16 pos1, UINT16 pos2){
;	---------------------------------
; Function seedRandomStartScreen
; ---------------------------------
_seedRandomStartScreen::
;P:\04_Computer_Science\C_CPP\Gameboy\02_Domination\ionic_limb_lib\IonicLimb.c:338: set_win_data(first_tile, nb_tiles, tiles);
	pop	bc
	pop	hl
	push	hl
	push	bc
	push	hl
	ldhl	sp,	#9
	ld	a, (hl)
	push	af
	inc	sp
	dec	hl
	ld	a, (hl)
	push	af
	inc	sp
	call	_set_win_data
	add	sp, #4
;P:\04_Computer_Science\C_CPP\Gameboy\02_Domination\ionic_limb_lib\IonicLimb.c:339: set_win_tiles(0, 0, 20, 18, map);
	ldhl	sp,	#4
	ld	a, (hl+)
	ld	h, (hl)
	ld	l, a
	push	hl
	ld	de, #0x1214
	push	de
	xor	a, a
	push	af
	inc	sp
	xor	a, a
	push	af
	inc	sp
	call	_set_win_tiles
	add	sp, #6
;P:\04_Computer_Science\C_CPP\Gameboy\02_Domination\ionic_limb_lib\IonicLimb.c:341: performantDelay(10);
	ld	a, #0x0a
	push	af
	inc	sp
	call	_performantDelay
	inc	sp
;P:\04_Computer_Science\C_CPP\Gameboy\02_Domination\ionic_limb_lib\IonicLimb.c:342: SHOW_WIN;
	ldh	a, (_LCDC_REG+0)
	or	a, #0x20
	ldh	(_LCDC_REG+0),a
;P:\04_Computer_Science\C_CPP\Gameboy\02_Domination\ionic_limb_lib\IonicLimb.c:344: DISPLAY_ON;
	ldh	a, (_LCDC_REG+0)
	or	a, #0x80
	ldh	(_LCDC_REG+0),a
;P:/_lib/gbdk/include/gb/gb.h:1015: WX_REG=x, WY_REG=y;
	ld	a, #0x07
	ldh	(_WX_REG+0),a
	ld	a, #0x00
	ldh	(_WY_REG+0),a
;P:\04_Computer_Science\C_CPP\Gameboy\02_Domination\ionic_limb_lib\IonicLimb.c:347: waitpad(0xFF);
	ld	a, #0xff
	push	af
	inc	sp
	call	_waitpad
	inc	sp
;P:\04_Computer_Science\C_CPP\Gameboy\02_Domination\ionic_limb_lib\IonicLimb.c:348: waitpadup();
	call	_waitpadup
;P:\04_Computer_Science\C_CPP\Gameboy\02_Domination\ionic_limb_lib\IonicLimb.c:349: map[pos1] = confirmationChar;
;c
	ldhl	sp,#4
	ld	a, (hl+)
	ld	e, a
	ld	d, (hl)
	ldhl	sp,	#9
	ld	a, (hl+)
	ld	h, (hl)
	ld	l, a
	add	hl, de
	ld	c, l
	ld	b, h
	ldhl	sp,	#8
	ld	a, (hl)
	ld	(bc), a
;P:\04_Computer_Science\C_CPP\Gameboy\02_Domination\ionic_limb_lib\IonicLimb.c:350: set_win_tiles(0, 0, 20, 18, map);
	ldhl	sp,	#4
	ld	a, (hl+)
	ld	h, (hl)
	ld	l, a
	push	hl
	ld	de, #0x1214
	push	de
	xor	a, a
	push	af
	inc	sp
	xor	a, a
	push	af
	inc	sp
	call	_set_win_tiles
	add	sp, #6
;P:\04_Computer_Science\C_CPP\Gameboy\02_Domination\ionic_limb_lib\IonicLimb.c:351: seed = DIV_REG;
	ldh	a, (_DIV_REG+0)
	ld	c, a
	ld	b, #0x00
;P:\04_Computer_Science\C_CPP\Gameboy\02_Domination\ionic_limb_lib\IonicLimb.c:353: waitpad(0xFF);
	ld	a, #0xff
	push	af
	inc	sp
	call	_waitpad
	inc	sp
;P:\04_Computer_Science\C_CPP\Gameboy\02_Domination\ionic_limb_lib\IonicLimb.c:354: waitpadup();
	call	_waitpadup
;P:\04_Computer_Science\C_CPP\Gameboy\02_Domination\ionic_limb_lib\IonicLimb.c:355: map[pos2] = confirmationChar;
;c
	ldhl	sp,#4
	ld	a, (hl+)
	ld	e, a
	ld	d, (hl)
	ldhl	sp,	#11
	ld	a, (hl+)
	ld	h, (hl)
	ld	l, a
	add	hl, de
	ld	e, l
	ld	d, h
	ldhl	sp,	#8
	ld	a, (hl)
	ld	(de), a
;P:\04_Computer_Science\C_CPP\Gameboy\02_Domination\ionic_limb_lib\IonicLimb.c:356: set_win_tiles(0, 0, 20, 18, map);
	ldhl	sp,	#4
	ld	a, (hl+)
	ld	h, (hl)
	ld	l, a
	push	hl
	ld	de, #0x1214
	push	de
	xor	a, a
	push	af
	inc	sp
	xor	a, a
	push	af
	inc	sp
	call	_set_win_tiles
	add	sp, #6
;P:\04_Computer_Science\C_CPP\Gameboy\02_Domination\ionic_limb_lib\IonicLimb.c:357: seed |= (UWORD)DIV_REG << 8;
	ldh	a, (_DIV_REG+0)
	ld	e, a
	ld	a, #0x00
	or	a, c
	ld	c, a
	ld	a, e
	or	a, b
	ld	b, a
;P:\04_Computer_Science\C_CPP\Gameboy\02_Domination\ionic_limb_lib\IonicLimb.c:359: initarand(seed);
	push	bc
	call	_initarand
	add	sp, #2
;P:\04_Computer_Science\C_CPP\Gameboy\02_Domination\ionic_limb_lib\IonicLimb.c:360: }
	ret
;P:\04_Computer_Science\C_CPP\Gameboy\02_Domination\ionic_limb_lib\IonicLimb.c:363: void showLogo(){
;	---------------------------------
; Function showLogo
; ---------------------------------
_showLogo::
;P:\04_Computer_Science\C_CPP\Gameboy\02_Domination\ionic_limb_lib\IonicLimb.c:364: set_win_data(0,120, IonicLimbTiles);
	ld	hl, #_IonicLimbTiles
	push	hl
	ld	a, #0x78
	push	af
	inc	sp
	xor	a, a
	push	af
	inc	sp
	call	_set_win_data
	add	sp, #4
;P:\04_Computer_Science\C_CPP\Gameboy\02_Domination\ionic_limb_lib\IonicLimb.c:365: set_win_tiles(0,0,20,18, IonicLimbMap);
	ld	hl, #_IonicLimbMap
	push	hl
	ld	de, #0x1214
	push	de
	xor	a, a
	push	af
	inc	sp
	xor	a, a
	push	af
	inc	sp
	call	_set_win_tiles
	add	sp, #6
;P:/_lib/gbdk/include/gb/gb.h:1015: WX_REG=x, WY_REG=y;
	ld	a, #0x07
	ldh	(_WX_REG+0),a
	ld	a, #0x00
	ldh	(_WY_REG+0),a
;P:\04_Computer_Science\C_CPP\Gameboy\02_Domination\ionic_limb_lib\IonicLimb.c:367: SHOW_WIN;
	ldh	a, (_LCDC_REG+0)
	or	a, #0x20
	ldh	(_LCDC_REG+0),a
;P:\04_Computer_Science\C_CPP\Gameboy\02_Domination\ionic_limb_lib\IonicLimb.c:368: SHOW_BKG;
	ldh	a, (_LCDC_REG+0)
	or	a, #0x01
	ldh	(_LCDC_REG+0),a
;P:\04_Computer_Science\C_CPP\Gameboy\02_Domination\ionic_limb_lib\IonicLimb.c:369: NR10_REG = 0x7f;
	ld	a, #0x7f
	ldh	(_NR10_REG+0),a
;P:\04_Computer_Science\C_CPP\Gameboy\02_Domination\ionic_limb_lib\IonicLimb.c:370: NR11_REG = 0xbf;
	ld	a, #0xbf
	ldh	(_NR11_REG+0),a
;P:\04_Computer_Science\C_CPP\Gameboy\02_Domination\ionic_limb_lib\IonicLimb.c:371: NR12_REG = 0x87;
	ld	a, #0x87
	ldh	(_NR12_REG+0),a
;P:\04_Computer_Science\C_CPP\Gameboy\02_Domination\ionic_limb_lib\IonicLimb.c:372: NR13_REG = 0x37;
	ld	a, #0x37
	ldh	(_NR13_REG+0),a
;P:\04_Computer_Science\C_CPP\Gameboy\02_Domination\ionic_limb_lib\IonicLimb.c:373: NR14_REG = 0x87;
	ld	a, #0x87
	ldh	(_NR14_REG+0),a
;P:\04_Computer_Science\C_CPP\Gameboy\02_Domination\ionic_limb_lib\IonicLimb.c:375: performantDelay(200);
	ld	a, #0xc8
	push	af
	inc	sp
	call	_performantDelay
	inc	sp
;P:\04_Computer_Science\C_CPP\Gameboy\02_Domination\ionic_limb_lib\IonicLimb.c:376: DISPLAY_OFF;
;P:\04_Computer_Science\C_CPP\Gameboy\02_Domination\ionic_limb_lib\IonicLimb.c:378: }
	jp  _display_off
;P:\04_Computer_Science\C_CPP\Gameboy\02_Domination\ionic_limb_lib\IonicLimb.c:394: void initialise(){
;	---------------------------------
; Function initialise
; ---------------------------------
_initialise::
;P:\04_Computer_Science\C_CPP\Gameboy\02_Domination\ionic_limb_lib\IonicLimb.c:395: initSound();
	call	_initSound
;P:\04_Computer_Science\C_CPP\Gameboy\02_Domination\ionic_limb_lib\IonicLimb.c:396: showLogo();
;P:\04_Computer_Science\C_CPP\Gameboy\02_Domination\ionic_limb_lib\IonicLimb.c:397: }
	jp  _showLogo
	.area _CODE_1
	.area _CABS (ABS)
